target datalayout = "e-m:e-p270:32:32-p271:32:32-p272:64:64-i64:64-i128:128-f80:128-n8:16:32:64-S128"
target triple = "x86_64-pc-linux-gnu"

; Function Attrs: nounwind uwtable
define hidden i32 @lxb_encoding_decode_valid_utf_8_single_reverse(ptr noundef %0, ptr noundef %1) #0 {
  %3 = alloca i32, align 4
  %4 = alloca ptr, align 8
  %5 = alloca ptr, align 8
  %6 = alloca i32, align 4
  %7 = alloca ptr, align 8
  %8 = alloca i32, align 4
  store ptr %0, ptr %4, align 8, !tbaa !8
  store ptr %1, ptr %5, align 8, !tbaa !10
  call void @llvm.lifetime.start.p0(i64 4, ptr %6) #5
  call void @llvm.lifetime.start.p0(i64 8, ptr %7) #5
  %9 = load ptr, ptr %4, align 8, !tbaa !8
  %10 = load ptr, ptr %9, align 8, !tbaa !10
  store ptr %10, ptr %7, align 8, !tbaa !10
  br label %11

11:                                               ; preds = %213, %2
  %12 = load ptr, ptr %7, align 8, !tbaa !10
  %13 = load ptr, ptr %5, align 8, !tbaa !10
  %14 = icmp ugt ptr %12, %13
  br i1 %14, label %15, label %214

15:                                               ; preds = %11
  %16 = load ptr, ptr %7, align 8, !tbaa !10
  %17 = getelementptr inbounds i8, ptr %16, i64 -1
  store ptr %17, ptr %7, align 8, !tbaa !10
  %18 = load ptr, ptr %7, align 8, !tbaa !10
  %19 = load i8, ptr %18, align 1, !tbaa !27
  %20 = zext i8 %19 to i32
  %21 = icmp slt i32 %20, 128
  br i1 %21, label %22, label %29

22:                                               ; preds = %15
  %23 = load ptr, ptr %7, align 8, !tbaa !10
  %24 = load i8, ptr %23, align 1, !tbaa !27
  %25 = zext i8 %24 to i32
  store i32 %25, ptr %6, align 4, !tbaa !28
  %26 = load ptr, ptr %7, align 8, !tbaa !10
  %27 = load ptr, ptr %4, align 8, !tbaa !8
  store ptr %26, ptr %27, align 8, !tbaa !10
  %28 = load i32, ptr %6, align 4, !tbaa !28
  store i32 %28, ptr %3, align 4
  store i32 1, ptr %8, align 4
  br label %217

29:                                               ; preds = %15
  %30 = load ptr, ptr %7, align 8, !tbaa !10
  %31 = load i8, ptr %30, align 1, !tbaa !27
  %32 = zext i8 %31 to i32
  %33 = and i32 %32, 224
  %34 = icmp eq i32 %33, 192
  br i1 %34, label %35, label %73

35:                                               ; preds = %29
  %36 = load ptr, ptr %4, align 8, !tbaa !8
  %37 = load ptr, ptr %36, align 8, !tbaa !10
  %38 = load ptr, ptr %7, align 8, !tbaa !10
  %39 = ptrtoint ptr %37 to i64
  %40 = ptrtoint ptr %38 to i64
  %41 = sub i64 %39, %40
  %42 = icmp slt i64 %41, 2
  br i1 %42, label %43, label %46

43:                                               ; preds = %35
  %44 = load ptr, ptr %7, align 8, !tbaa !10
  %45 = load ptr, ptr %4, align 8, !tbaa !8
  store ptr %44, ptr %45, align 8, !tbaa !10
  store i32 2097151, ptr %3, align 4
  store i32 1, ptr %8, align 4
  br label %217

46:                                               ; preds = %35
  %47 = load ptr, ptr %7, align 8, !tbaa !10
  %48 = getelementptr inbounds i8, ptr %47, i64 0
  %49 = load i8, ptr %48, align 1, !tbaa !27
  %50 = zext i8 %49 to i32
  %51 = load ptr, ptr %7, align 8, !tbaa !10
  %52 = getelementptr inbounds i8, ptr %51, i64 0
  %53 = load i8, ptr %52, align 1, !tbaa !27
  %54 = zext i8 %53 to i32
  %55 = and i32 192, %54
  %56 = xor i32 %50, %55
  %57 = shl i32 %56, 6
  store i32 %57, ptr %6, align 4, !tbaa !28
  %58 = load ptr, ptr %7, align 8, !tbaa !10
  %59 = getelementptr inbounds i8, ptr %58, i64 1
  %60 = load i8, ptr %59, align 1, !tbaa !27
  %61 = zext i8 %60 to i32
  %62 = load ptr, ptr %7, align 8, !tbaa !10
  %63 = getelementptr inbounds i8, ptr %62, i64 1
  %64 = load i8, ptr %63, align 1, !tbaa !27
  %65 = zext i8 %64 to i32
  %66 = and i32 128, %65
  %67 = xor i32 %61, %66
  %68 = load i32, ptr %6, align 4, !tbaa !28
  %69 = or i32 %68, %67
  store i32 %69, ptr %6, align 4, !tbaa !28
  %70 = load ptr, ptr %7, align 8, !tbaa !10
  %71 = load ptr, ptr %4, align 8, !tbaa !8
  store ptr %70, ptr %71, align 8, !tbaa !10
  %72 = load i32, ptr %6, align 4, !tbaa !28
  store i32 %72, ptr %3, align 4
  store i32 1, ptr %8, align 4
  br label %217

73:                                               ; preds = %29
  %74 = load ptr, ptr %7, align 8, !tbaa !10
  %75 = load i8, ptr %74, align 1, !tbaa !27
  %76 = zext i8 %75 to i32
  %77 = and i32 %76, 240
  %78 = icmp eq i32 %77, 224
  br i1 %78, label %79, label %130

79:                                               ; preds = %73
  %80 = load ptr, ptr %4, align 8, !tbaa !8
  %81 = load ptr, ptr %80, align 8, !tbaa !10
  %82 = load ptr, ptr %7, align 8, !tbaa !10
  %83 = ptrtoint ptr %81 to i64
  %84 = ptrtoint ptr %82 to i64
  %85 = sub i64 %83, %84
  %86 = icmp slt i64 %85, 3
  br i1 %86, label %87, label %90

87:                                               ; preds = %79
  %88 = load ptr, ptr %7, align 8, !tbaa !10
  %89 = load ptr, ptr %4, align 8, !tbaa !8
  store ptr %88, ptr %89, align 8, !tbaa !10
  store i32 2097151, ptr %3, align 4
  store i32 1, ptr %8, align 4
  br label %217

90:                                               ; preds = %79
  %91 = load ptr, ptr %7, align 8, !tbaa !10
  %92 = getelementptr inbounds i8, ptr %91, i64 0
  %93 = load i8, ptr %92, align 1, !tbaa !27
  %94 = zext i8 %93 to i32
  %95 = load ptr, ptr %7, align 8, !tbaa !10
  %96 = getelementptr inbounds i8, ptr %95, i64 0
  %97 = load i8, ptr %96, align 1, !tbaa !27
  %98 = zext i8 %97 to i32
  %99 = and i32 224, %98
  %100 = xor i32 %94, %99
  %101 = shl i32 %100, 12
  store i32 %101, ptr %6, align 4, !tbaa !28
  %102 = load ptr, ptr %7, align 8, !tbaa !10
  %103 = getelementptr inbounds i8, ptr %102, i64 1
  %104 = load i8, ptr %103, align 1, !tbaa !27
  %105 = zext i8 %104 to i32
  %106 = load ptr, ptr %7, align 8, !tbaa !10
  %107 = getelementptr inbounds i8, ptr %106, i64 1
  %108 = load i8, ptr %107, align 1, !tbaa !27
  %109 = zext i8 %108 to i32
  %110 = and i32 128, %109
  %111 = xor i32 %105, %110
  %112 = shl i32 %111, 6
  %113 = load i32, ptr %6, align 4, !tbaa !28
  %114 = or i32 %113, %112
  store i32 %114, ptr %6, align 4, !tbaa !28
  %115 = load ptr, ptr %7, align 8, !tbaa !10
  %116 = getelementptr inbounds i8, ptr %115, i64 2
  %117 = load i8, ptr %116, align 1, !tbaa !27
  %118 = zext i8 %117 to i32
  %119 = load ptr, ptr %7, align 8, !tbaa !10
  %120 = getelementptr inbounds i8, ptr %119, i64 2
  %121 = load i8, ptr %120, align 1, !tbaa !27
  %122 = zext i8 %121 to i32
  %123 = and i32 128, %122
  %124 = xor i32 %118, %123
  %125 = load i32, ptr %6, align 4, !tbaa !28
  %126 = or i32 %125, %124
  store i32 %126, ptr %6, align 4, !tbaa !28
  %127 = load ptr, ptr %7, align 8, !tbaa !10
  %128 = load ptr, ptr %4, align 8, !tbaa !8
  store ptr %127, ptr %128, align 8, !tbaa !10
  %129 = load i32, ptr %6, align 4, !tbaa !28
  store i32 %129, ptr %3, align 4
  store i32 1, ptr %8, align 4
  br label %217

130:                                              ; preds = %73
  %131 = load ptr, ptr %7, align 8, !tbaa !10
  %132 = load i8, ptr %131, align 1, !tbaa !27
  %133 = zext i8 %132 to i32
  %134 = and i32 %133, 248
  %135 = icmp eq i32 %134, 240
  br i1 %135, label %136, label %200

136:                                              ; preds = %130
  %137 = load ptr, ptr %4, align 8, !tbaa !8
  %138 = load ptr, ptr %137, align 8, !tbaa !10
  %139 = load ptr, ptr %7, align 8, !tbaa !10
  %140 = ptrtoint ptr %138 to i64
  %141 = ptrtoint ptr %139 to i64
  %142 = sub i64 %140, %141
  %143 = icmp slt i64 %142, 4
  br i1 %143, label %144, label %147

144:                                              ; preds = %136
  %145 = load ptr, ptr %7, align 8, !tbaa !10
  %146 = load ptr, ptr %4, align 8, !tbaa !8
  store ptr %145, ptr %146, align 8, !tbaa !10
  store i32 2097151, ptr %3, align 4
  store i32 1, ptr %8, align 4
  br label %217

147:                                              ; preds = %136
  %148 = load ptr, ptr %7, align 8, !tbaa !10
  %149 = getelementptr inbounds i8, ptr %148, i64 0
  %150 = load i8, ptr %149, align 1, !tbaa !27
  %151 = zext i8 %150 to i32
  %152 = load ptr, ptr %7, align 8, !tbaa !10
  %153 = getelementptr inbounds i8, ptr %152, i64 0
  %154 = load i8, ptr %153, align 1, !tbaa !27
  %155 = zext i8 %154 to i32
  %156 = and i32 240, %155
  %157 = xor i32 %151, %156
  %158 = shl i32 %157, 18
  store i32 %158, ptr %6, align 4, !tbaa !28
  %159 = load ptr, ptr %7, align 8, !tbaa !10
  %160 = getelementptr inbounds i8, ptr %159, i64 1
  %161 = load i8, ptr %160, align 1, !tbaa !27
  %162 = zext i8 %161 to i32
  %163 = load ptr, ptr %7, align 8, !tbaa !10
  %164 = getelementptr inbounds i8, ptr %163, i64 1
  %165 = load i8, ptr %164, align 1, !tbaa !27
  %166 = zext i8 %165 to i32
  %167 = and i32 128, %166
  %168 = xor i32 %162, %167
  %169 = shl i32 %168, 12
  %170 = load i32, ptr %6, align 4, !tbaa !28
  %171 = or i32 %170, %169
  store i32 %171, ptr %6, align 4, !tbaa !28
  %172 = load ptr, ptr %7, align 8, !tbaa !10
  %173 = getelementptr inbounds i8, ptr %172, i64 2
  %174 = load i8, ptr %173, align 1, !tbaa !27
  %175 = zext i8 %174 to i32
  %176 = load ptr, ptr %7, align 8, !tbaa !10
  %177 = getelementptr inbounds i8, ptr %176, i64 2
  %178 = load i8, ptr %177, align 1, !tbaa !27
  %179 = zext i8 %178 to i32
  %180 = and i32 128, %179
  %181 = xor i32 %175, %180
  %182 = shl i32 %181, 6
  %183 = load i32, ptr %6, align 4, !tbaa !28
  %184 = or i32 %183, %182
  store i32 %184, ptr %6, align 4, !tbaa !28
  %185 = load ptr, ptr %7, align 8, !tbaa !10
  %186 = getelementptr inbounds i8, ptr %185, i64 3
  %187 = load i8, ptr %186, align 1, !tbaa !27
  %188 = zext i8 %187 to i32
  %189 = load ptr, ptr %7, align 8, !tbaa !10
  %190 = getelementptr inbounds i8, ptr %189, i64 3
  %191 = load i8, ptr %190, align 1, !tbaa !27
  %192 = zext i8 %191 to i32
  %193 = and i32 128, %192
  %194 = xor i32 %188, %193
  %195 = load i32, ptr %6, align 4, !tbaa !28
  %196 = or i32 %195, %194
  store i32 %196, ptr %6, align 4, !tbaa !28
  %197 = load ptr, ptr %7, align 8, !tbaa !10
  %198 = load ptr, ptr %4, align 8, !tbaa !8
  store ptr %197, ptr %198, align 8, !tbaa !10
  %199 = load i32, ptr %6, align 4, !tbaa !28
  store i32 %199, ptr %3, align 4
  store i32 1, ptr %8, align 4
  br label %217

200:                                              ; preds = %130
  %201 = load ptr, ptr %4, align 8, !tbaa !8
  %202 = load ptr, ptr %201, align 8, !tbaa !10
  %203 = load ptr, ptr %7, align 8, !tbaa !10
  %204 = ptrtoint ptr %202 to i64
  %205 = ptrtoint ptr %203 to i64
  %206 = sub i64 %204, %205
  %207 = icmp sge i64 %206, 4
  br i1 %207, label %208, label %209

208:                                              ; preds = %200
  br label %214

209:                                              ; preds = %200
  br label %210

210:                                              ; preds = %209
  br label %211

211:                                              ; preds = %210
  br label %212

212:                                              ; preds = %211
  br label %213

213:                                              ; preds = %212
  br label %11

214:                                              ; preds = %208, %11
  %215 = load ptr, ptr %7, align 8, !tbaa !10
  %216 = load ptr, ptr %4, align 8, !tbaa !8
  store ptr %215, ptr %216, align 8, !tbaa !10
  store i32 2097151, ptr %3, align 4
  store i32 1, ptr %8, align 4
  br label %217

217:                                              ; preds = %214, %147, %144, %90, %87, %46, %43, %22
  call void @llvm.lifetime.end.p0(i64 8, ptr %7) #5
  call void @llvm.lifetime.end.p0(i64 4, ptr %6) #5
  %218 = load i32, ptr %3, align 4
  ret i32 %218
}