; Function Attrs: nofree norecurse nosync nounwind memory(read, argmem: readwrite, inaccessiblemem: none) uwtable
define hidden range(i32 0, 2097152) i32 @lxb_encoding_decode_valid_utf_8_single_reverse(ptr noundef captures(none) %0, ptr noundef readnone captures(address) %1) local_unnamed_addr #5 {
  %3 = load ptr, ptr %0, align 8, !tbaa !4
  %4 = ptrtoint ptr %3 to i64
  %scevgep = getelementptr i8, ptr %3, i64 -4
  br label %5

5:                                                ; preds = %72, %2
  %.0 = phi ptr [ %3, %2 ], [ %8, %72 ]
  %6 = icmp ugt ptr %.0, %1
  br i1 %6, label %7, label %.loopexit

7:                                                ; preds = %5
  %8 = getelementptr inbounds i8, ptr %.0, i64 -1
  %9 = load i8, ptr %8, align 1, !tbaa !24
  %10 = zext i8 %9 to i32
  %11 = icmp sgt i8 %9, -1
  br i1 %11, label %.loopexit, label %12

12:                                               ; preds = %7
  %13 = and i32 %10, 224
  %14 = icmp eq i32 %13, 192
  br i1 %14, label %15, label %26

15:                                               ; preds = %12
  %16 = ptrtoint ptr %8 to i64
  %17 = sub i64 %4, %16
  %18 = icmp slt i64 %17, 2
  br i1 %18, label %.loopexit, label %19

19:                                               ; preds = %15
  %20 = shl nuw nsw i32 %10, 6
  %21 = and i32 %20, 1984
  %22 = load i8, ptr %.0, align 1, !tbaa !24
  %23 = and i8 %22, 127
  %24 = zext nneg i8 %23 to i32
  %25 = or i32 %21, %24
  br label %.loopexit

26:                                               ; preds = %12
  %27 = and i32 %10, 240
  %28 = icmp eq i32 %27, 224
  br i1 %28, label %29, label %46

29:                                               ; preds = %26
  %30 = ptrtoint ptr %8 to i64
  %31 = sub i64 %4, %30
  %32 = icmp slt i64 %31, 3
  br i1 %32, label %.loopexit, label %33

33:                                               ; preds = %29
  %34 = shl nuw nsw i32 %10, 12
  %35 = and i32 %34, 61440
  %36 = load i8, ptr %.0, align 1, !tbaa !24
  %37 = and i8 %36, 127
  %38 = zext nneg i8 %37 to i32
  %39 = shl nuw nsw i32 %38, 6
  %40 = or i32 %39, %35
  %41 = getelementptr inbounds nuw i8, ptr %.0, i64 1
  %42 = load i8, ptr %41, align 1, !tbaa !24
  %43 = and i8 %42, 127
  %44 = zext nneg i8 %43 to i32
  %45 = or i32 %40, %44
  br label %.loopexit

46:                                               ; preds = %26
  %47 = and i32 %10, 248
  %48 = icmp eq i32 %47, 240
  %49 = ptrtoint ptr %8 to i64
  %50 = sub i64 %4, %49
  br i1 %48, label %51, label %72

51:                                               ; preds = %46
  %52 = icmp slt i64 %50, 4
  br i1 %52, label %.loopexit, label %53

53:                                               ; preds = %51
  %54 = shl nuw nsw i32 %10, 18
  %55 = and i32 %54, 1835008
  %56 = load i8, ptr %.0, align 1, !tbaa !24
  %57 = and i8 %56, 127
  %58 = zext nneg i8 %57 to i32
  %59 = shl nuw nsw i32 %58, 12
  %60 = or i32 %59, %55
  %61 = getelementptr inbounds nuw i8, ptr %.0, i64 1
  %62 = load i8, ptr %61, align 1, !tbaa !24
  %63 = and i8 %62, 127
  %64 = zext nneg i8 %63 to i32
  %65 = shl nuw nsw i32 %64, 6
  %66 = or i32 %60, %65
  %67 = getelementptr inbounds nuw i8, ptr %.0, i64 2
  %68 = load i8, ptr %67, align 1, !tbaa !24
  %69 = and i8 %68, 127
  %70 = zext nneg i8 %69 to i32
  %71 = or i32 %66, %70
  br label %.loopexit

72:                                               ; preds = %46
  %73 = icmp sgt i64 %50, 3
  br i1 %73, label %.loopexit, label %5

.loopexit:                                        ; preds = %5, %72, %7, %51, %29, %15, %53, %33, %19
  %.1.sink = phi ptr [ %8, %53 ], [ %8, %33 ], [ %8, %19 ], [ %8, %15 ], [ %8, %29 ], [ %8, %51 ], [ %8, %7 ], [ %scevgep, %72 ], [ %.0, %5 ]
  %.061 = phi i32 [ %71, %53 ], [ %45, %33 ], [ %25, %19 ], [ 2097151, %15 ], [ 2097151, %29 ], [ 2097151, %51 ], [ %10, %7 ], [ 2097151, %72 ], [ 2097151, %5 ]
  store ptr %.1.sink, ptr %0, align 8, !tbaa !4
  ret i32 %.061
}